; Function Attrs: mustprogress uwtable
define void @_ZN7rocksdb14ThreadPoolImpl9SubmitJobEOSt8functionIFvvEE(ptr noundef nonnull readonly align 8 captures(none) dereferenceable(16) %0, ptr noundef nonnull align 8 captures(none) dereferenceable(32) %1) unnamed_addr #3 align 2 personality ptr @__gxx_personality_v0 {
  %3 = alloca %"class.std::function", align 8
  %4 = getelementptr inbounds nuw i8, ptr %0, i64 8
  %5 = load ptr, ptr %4, align 8, !tbaa !155
  call void @llvm.lifetime.start.p0(i64 32, ptr nonnull %3) #26
  call void @llvm.memset.p0.i64(ptr noundef nonnull align 8 dereferenceable(32) %3, i8 0, i64 32, i1 false)
  invoke void @_ZN7rocksdb14ThreadPoolImpl4Impl6SubmitEOSt8functionIFvvEES5_Pv(ptr noundef nonnull align 8 dereferenceable(240) %5, ptr noundef nonnull align 8 dereferenceable(32) %1, ptr noundef nonnull align 8 dereferenceable(32) %3, ptr noundef null)
          to label %6 unwind label %14

6:                                                ; preds = %2
  %7 = getelementptr inbounds nuw i8, ptr %3, i64 16
  %8 = load ptr, ptr %7, align 8, !tbaa !66
  %.not.i = icmp eq ptr %8, null
  br i1 %.not.i, label %_ZNSt14_Function_baseD2Ev.exit, label %9

9:                                                ; preds = %6
  %10 = invoke noundef zeroext i1 %8(ptr noundef nonnull align 8 dereferenceable(32) %3, ptr noundef nonnull align 8 dereferenceable(32) %3, i32 noundef 3)
          to label %_ZNSt14_Function_baseD2Ev.exit unwind label %11

11:                                               ; preds = %9
  %12 = landingpad { ptr, i32 }
          catch ptr null
  %13 = extractvalue { ptr, i32 } %12, 0
  call void @__clang_call_terminate(ptr %13) #28
  unreachable

_ZNSt14_Function_baseD2Ev.exit:                   ; preds = %6, %9
  call void @llvm.lifetime.end.p0(i64 32, ptr nonnull %3) #26
  ret void

14:                                               ; preds = %2
  %15 = landingpad { ptr, i32 }
          cleanup
  %16 = getelementptr inbounds nuw i8, ptr %3, i64 16
  %17 = load ptr, ptr %16, align 8, !tbaa !66
  %.not.i3 = icmp eq ptr %17, null
  br i1 %.not.i3, label %_ZNSt14_Function_baseD2Ev.exit4, label %18

18:                                               ; preds = %14
  %19 = invoke noundef zeroext i1 %17(ptr noundef nonnull align 8 dereferenceable(32) %3, ptr noundef nonnull align 8 dereferenceable(32) %3, i32 noundef 3)
          to label %_ZNSt14_Function_baseD2Ev.exit4 unwind label %20

20:                                               ; preds = %18
  %21 = landingpad { ptr, i32 }
          catch ptr null
  %22 = extractvalue { ptr, i32 } %21, 0
  call void @__clang_call_terminate(ptr %22) #28
  unreachable

_ZNSt14_Function_baseD2Ev.exit4:                  ; preds = %14, %18
  call void @llvm.lifetime.end.p0(i64 32, ptr nonnull %3) #26
  resume { ptr, i32 } %15
}